target datalayout = "e-m:e-p270:32:32-p271:32:32-p272:64:64-i64:64-i128:128-f80:128-n8:16:32:64-S128"
target triple = "x86_64-pc-linux-gnu"

%struct.Abc_Ntk_t_ = type { i32, i32, ptr, ptr, ptr, ptr, ptr, ptr, ptr, ptr, ptr, ptr, ptr, [11 x i32], i32, i32, i32, i32, ptr, i32, ptr, ptr, i32, i32, i32, double, i32, %struct.Vec_Int_t_, ptr, ptr, ptr, ptr, ptr, float, i32, ptr, ptr, ptr, ptr, ptr, ptr, ptr, ptr, ptr, ptr, ptr, ptr, ptr, ptr, ptr, ptr, ptr, ptr, ptr, ptr, ptr, ptr }
%struct.Vec_Int_t_ = type { i32, i32, ptr }
%struct.Vec_Ptr_t_ = type { i32, i32, ptr }
%struct.Abc_Obj_t_ = type { ptr, ptr, i32, i32, %struct.Vec_Int_t_, %struct.Vec_Int_t_, %union.anon, %union.anon.0 }
%union.anon = type { ptr }
%union.anon.0 = type { ptr }

; Function Attrs: inlinehint nounwind uwtable
define internal ptr @Vec_PtrEntry(ptr noundef %0, i32 noundef %1) #4 {
  %3 = alloca ptr, align 8
  %4 = alloca i32, align 4
  store ptr %0, ptr %3, align 8, !tbaa !42
  store i32 %1, ptr %4, align 4, !tbaa !11
  %5 = load ptr, ptr %3, align 8, !tbaa !42
  %6 = getelementptr inbounds nuw %struct.Vec_Ptr_t_, ptr %5, i32 0, i32 2
  %7 = load ptr, ptr %6, align 8, !tbaa !48
  %8 = load i32, ptr %4, align 4, !tbaa !11
  %9 = sext i32 %8 to i64
  %10 = getelementptr inbounds ptr, ptr %7, i64 %9
  %11 = load ptr, ptr %10, align 8, !tbaa !8
  ret ptr %11
}

; Function Attrs: inlinehint nounwind uwtable
define internal i32 @Abc_NtkPoNum(ptr noundef %0) #4 {
  %2 = alloca ptr, align 8
  store ptr %0, ptr %2, align 8, !tbaa !3
  %3 = load ptr, ptr %2, align 8, !tbaa !3
  %4 = getelementptr inbounds nuw %struct.Abc_Ntk_t_, ptr %3, i32 0, i32 7
  %5 = load ptr, ptr %4, align 8, !tbaa !50
  %6 = call i32 @Vec_PtrSize(ptr noundef %5)
  ret i32 %6
}

; Function Attrs: inlinehint nounwind uwtable
define internal i32 @Abc_ObjIsPo(ptr noundef %0) #4 {
  %2 = alloca ptr, align 8
  store ptr %0, ptr %2, align 8, !tbaa !32
  %3 = load ptr, ptr %2, align 8, !tbaa !32
  %4 = getelementptr inbounds nuw %struct.Abc_Obj_t_, ptr %3, i32 0, i32 3
  %5 = load i32, ptr %4, align 4
  %6 = and i32 %5, 15
  %7 = icmp eq i32 %6, 3
  %8 = zext i1 %7 to i32
  ret i32 %8
}

; Function Attrs: inlinehint nounwind uwtable
define internal i32 @Abc_ObjIsNode(ptr noundef %0) #4 {
  %2 = alloca ptr, align 8
  store ptr %0, ptr %2, align 8, !tbaa !32
  %3 = load ptr, ptr %2, align 8, !tbaa !32
  %4 = getelementptr inbounds nuw %struct.Abc_Obj_t_, ptr %3, i32 0, i32 3
  %5 = load i32, ptr %4, align 4
  %6 = and i32 %5, 15
  %7 = icmp eq i32 %6, 7
  %8 = zext i1 %7 to i32
  ret i32 %8
}

; Function Attrs: inlinehint nounwind uwtable
define internal ptr @Abc_ObjFanin(ptr noundef %0, i32 noundef %1) #4 {
  %3 = alloca ptr, align 8
  %4 = alloca i32, align 4
  store ptr %0, ptr %3, align 8, !tbaa !32
  store i32 %1, ptr %4, align 4, !tbaa !11
  %5 = load ptr, ptr %3, align 8, !tbaa !32
  %6 = getelementptr inbounds nuw %struct.Abc_Obj_t_, ptr %5, i32 0, i32 0
  %7 = load ptr, ptr %6, align 8, !tbaa !47
  %8 = getelementptr inbounds nuw %struct.Abc_Ntk_t_, ptr %7, i32 0, i32 5
  %9 = load ptr, ptr %8, align 8, !tbaa !17
  %10 = getelementptr inbounds nuw %struct.Vec_Ptr_t_, ptr %9, i32 0, i32 2
  %11 = load ptr, ptr %10, align 8, !tbaa !48
  %12 = load ptr, ptr %3, align 8, !tbaa !32
  %13 = getelementptr inbounds nuw %struct.Abc_Obj_t_, ptr %12, i32 0, i32 4
  %14 = getelementptr inbounds nuw %struct.Vec_Int_t_, ptr %13, i32 0, i32 2
  %15 = load ptr, ptr %14, align 8, !tbaa !49
  %16 = load i32, ptr %4, align 4, !tbaa !11
  %17 = sext i32 %16 to i64
  %18 = getelementptr inbounds i32, ptr %15, i64 %17
  %19 = load i32, ptr %18, align 4, !tbaa !11
  %20 = sext i32 %19 to i64
  %21 = getelementptr inbounds ptr, ptr %11, i64 %20
  %22 = load ptr, ptr %21, align 8, !tbaa !8
  ret ptr %22
}

; Function Attrs: inlinehint nounwind uwtable
define internal i32 @Abc_ObjFaninNum(ptr noundef %0) #4 {
  %2 = alloca ptr, align 8
  store ptr %0, ptr %2, align 8, !tbaa !32
  %3 = load ptr, ptr %2, align 8, !tbaa !32
  %4 = getelementptr inbounds nuw %struct.Abc_Obj_t_, ptr %3, i32 0, i32 4
  %5 = getelementptr inbounds nuw %struct.Vec_Int_t_, ptr %4, i32 0, i32 1
  %6 = load i32, ptr %5, align 4, !tbaa !45
  ret i32 %6
}

; Function Attrs: inlinehint nounwind uwtable
define internal ptr @Abc_NtkObj(ptr noundef %0, i32 noundef %1) #4 {
  %3 = alloca ptr, align 8
  %4 = alloca i32, align 4
  store ptr %0, ptr %3, align 8, !tbaa !3
  store i32 %1, ptr %4, align 4, !tbaa !11
  %5 = load ptr, ptr %3, align 8, !tbaa !3
  %6 = getelementptr inbounds nuw %struct.Abc_Ntk_t_, ptr %5, i32 0, i32 5
  %7 = load ptr, ptr %6, align 8, !tbaa !17
  %8 = load i32, ptr %4, align 4, !tbaa !11
  %9 = call ptr @Vec_PtrEntry(ptr noundef %7, i32 noundef %8)
  ret ptr %9
}

; Function Attrs: inlinehint nounwind uwtable
define internal i32 @Vec_PtrSize(ptr noundef %0) #4 {
  %2 = alloca ptr, align 8
  store ptr %0, ptr %2, align 8, !tbaa !42
  %3 = load ptr, ptr %2, align 8, !tbaa !42
  %4 = getelementptr inbounds nuw %struct.Vec_Ptr_t_, ptr %3, i32 0, i32 1
  %5 = load i32, ptr %4, align 4, !tbaa !43
  ret i32 %5
}

; Function Attrs: nounwind uwtable
define i32 @Abc_NtkFindGivenFanin(ptr noundef %0, i32 noundef %1, ptr noundef %2, ptr noundef %3) #0 {
  %5 = alloca i32, align 4
  %6 = alloca ptr, align 8
  %7 = alloca i32, align 4
  %8 = alloca ptr, align 8
  %9 = alloca ptr, align 8
  %10 = alloca ptr, align 8
  %11 = alloca ptr, align 8
  %12 = alloca i32, align 4
  %13 = alloca i32, align 4
  %14 = alloca i32, align 4
  %15 = alloca i32, align 4
  store ptr %0, ptr %6, align 8, !tbaa !3
  store i32 %1, ptr %7, align 4, !tbaa !11
  store ptr %2, ptr %8, align 8, !tbaa !38
  store ptr %3, ptr %9, align 8, !tbaa !38
  call void @llvm.lifetime.start.p0(i64 8, ptr %10) #7
  call void @llvm.lifetime.start.p0(i64 8, ptr %11) #7
  call void @llvm.lifetime.start.p0(i64 4, ptr %12) #7
  call void @llvm.lifetime.start.p0(i64 4, ptr %13) #7
  call void @llvm.lifetime.start.p0(i64 4, ptr %14) #7
  store i32 0, ptr %14, align 4, !tbaa !11
  store i32 0, ptr %12, align 4, !tbaa !11
  br label %16

16:                                               ; preds = %88, %4
  %17 = load i32, ptr %12, align 4, !tbaa !11
  %18 = load ptr, ptr %6, align 8, !tbaa !3
  %19 = getelementptr inbounds nuw %struct.Abc_Ntk_t_, ptr %18, i32 0, i32 5
  %20 = load ptr, ptr %19, align 8, !tbaa !17
  %21 = call i32 @Vec_PtrSize(ptr noundef %20)
  %22 = icmp slt i32 %17, %21
  br i1 %22, label %23, label %27

23:                                               ; preds = %16
  %24 = load ptr, ptr %6, align 8, !tbaa !3
  %25 = load i32, ptr %12, align 4, !tbaa !11
  %26 = call ptr @Abc_NtkObj(ptr noundef %24, i32 noundef %25)
  store ptr %26, ptr %10, align 8, !tbaa !32
  br label %27

27:                                               ; preds = %23, %16
  %28 = phi i1 [ false, %16 ], [ true, %23 ]
  br i1 %28, label %29, label %91

29:                                               ; preds = %27
  %30 = load ptr, ptr %10, align 8, !tbaa !32
  %31 = icmp eq ptr %30, null
  br i1 %31, label %32, label %33

32:                                               ; preds = %29
  br label %87

33:                                               ; preds = %29
  store i32 0, ptr %13, align 4, !tbaa !11
  br label %34

34:                                               ; preds = %83, %33
  %35 = load i32, ptr %13, align 4, !tbaa !11
  %36 = load ptr, ptr %10, align 8, !tbaa !32
  %37 = call i32 @Abc_ObjFaninNum(ptr noundef %36)
  %38 = icmp slt i32 %35, %37
  br i1 %38, label %39, label %43

39:                                               ; preds = %34
  %40 = load ptr, ptr %10, align 8, !tbaa !32
  %41 = load i32, ptr %13, align 4, !tbaa !11
  %42 = call ptr @Abc_ObjFanin(ptr noundef %40, i32 noundef %41)
  store ptr %42, ptr %11, align 8, !tbaa !32
  br label %43

43:                                               ; preds = %39, %34
  %44 = phi i1 [ false, %34 ], [ true, %39 ]
  br i1 %44, label %45, label %86

45:                                               ; preds = %43
  %46 = load ptr, ptr %10, align 8, !tbaa !32
  %47 = call i32 @Abc_ObjIsNode(ptr noundef %46)
  %48 = icmp ne i32 %47, 0
  br i1 %48, label %54, label %49

49:                                               ; preds = %45
  %50 = load ptr, ptr %10, align 8, !tbaa !32
  %51 = call i32 @Abc_ObjIsPo(ptr noundef %50)
  %52 = icmp ne i32 %51, 0
  br i1 %52, label %54, label %53

53:                                               ; preds = %49
  br label %83

54:                                               ; preds = %49, %45
  %55 = load ptr, ptr %10, align 8, !tbaa !32
  %56 = call i32 @Abc_ObjIsPo(ptr noundef %55)
  %57 = icmp ne i32 %56, 0
  br i1 %57, label %58, label %63

58:                                               ; preds = %54
  %59 = load ptr, ptr %6, align 8, !tbaa !3
  %60 = call i32 @Abc_NtkPoNum(ptr noundef %59)
  %61 = icmp eq i32 %60, 1
  br i1 %61, label %62, label %63

62:                                               ; preds = %58
  br label %83

63:                                               ; preds = %58, %54
  %64 = load ptr, ptr %10, align 8, !tbaa !32
  %65 = call i32 @Abc_ObjIsNode(ptr noundef %64)
  %66 = icmp ne i32 %65, 0
  br i1 %66, label %67, label %72

67:                                               ; preds = %63
  %68 = load ptr, ptr %11, align 8, !tbaa !32
  %69 = call i32 @Abc_NodeIsConst(ptr noundef %68)
  %70 = icmp ne i32 %69, 0
  br i1 %70, label %71, label %72

71:                                               ; preds = %67
  br label %83

72:                                               ; preds = %67, %63
  %73 = load i32, ptr %14, align 4, !tbaa !11
  %74 = add nsw i32 %73, 1
  store i32 %74, ptr %14, align 4, !tbaa !11
  %75 = load i32, ptr %7, align 4, !tbaa !11
  %76 = icmp eq i32 %73, %75
  br i1 %76, label %77, label %82

77:                                               ; preds = %72
  %78 = load ptr, ptr %10, align 8, !tbaa !32
  %79 = load ptr, ptr %8, align 8, !tbaa !38
  store ptr %78, ptr %79, align 8, !tbaa !32
  %80 = load ptr, ptr %11, align 8, !tbaa !32
  %81 = load ptr, ptr %9, align 8, !tbaa !38
  store ptr %80, ptr %81, align 8, !tbaa !32
  store i32 1, ptr %5, align 4
  store i32 1, ptr %15, align 4
  br label %92

82:                                               ; preds = %72
  br label %83

83:                                               ; preds = %82, %71, %62, %53
  %84 = load i32, ptr %13, align 4, !tbaa !11
  %85 = add nsw i32 %84, 1
  store i32 %85, ptr %13, align 4, !tbaa !11
  br label %34, !llvm.loop !40

86:                                               ; preds = %43
  br label %87

87:                                               ; preds = %86, %32
  br label %88

88:                                               ; preds = %87
  %89 = load i32, ptr %12, align 4, !tbaa !11
  %90 = add nsw i32 %89, 1
  store i32 %90, ptr %12, align 4, !tbaa !11
  br label %16, !llvm.loop !41

91:                                               ; preds = %27
  store i32 0, ptr %5, align 4
  store i32 1, ptr %15, align 4
  br label %92

92:                                               ; preds = %91, %77
  call void @llvm.lifetime.end.p0(i64 4, ptr %14) #7
  call void @llvm.lifetime.end.p0(i64 4, ptr %13) #7
  call void @llvm.lifetime.end.p0(i64 4, ptr %12) #7
  call void @llvm.lifetime.end.p0(i64 8, ptr %11) #7
  call void @llvm.lifetime.end.p0(i64 8, ptr %10) #7
  %93 = load i32, ptr %5, align 4
  ret i32 %93
}