; Function Attrs: nounwind uwtable
define range(i32 0, 2) i32 @Abc_NtkFindGivenFanin(ptr noundef readonly captures(none) %0, i32 noundef %1, ptr noundef writeonly captures(none) %2, ptr noundef writeonly captures(none) %3) local_unnamed_addr #0 {
  %5 = getelementptr inbounds nuw i8, ptr %0, i64 32
  %6 = load ptr, ptr %5, align 8, !tbaa !9
  %7 = getelementptr i8, ptr %6, i64 4
  %.val49 = load i32, ptr %7, align 4, !tbaa !28
  %8 = icmp sgt i32 %.val49, 0
  br i1 %8, label %.lr.ph52, label %.critedge

.lr.ph52:                                         ; preds = %4
  %9 = getelementptr i8, ptr %0, i64 48
  br label %10

10:                                               ; preds = %.lr.ph52, %.critedge2
  %11 = phi ptr [ %6, %.lr.ph52 ], [ %41, %.critedge2 ]
  %indvars.iv57 = phi i64 [ 0, %.lr.ph52 ], [ %indvars.iv.next58, %.critedge2 ]
  %.051 = phi i32 [ 0, %.lr.ph52 ], [ %.3, %.critedge2 ]
  %12 = getelementptr i8, ptr %11, i64 8
  %.val33.val = load ptr, ptr %12, align 8, !tbaa !30
  %13 = getelementptr inbounds nuw ptr, ptr %.val33.val, i64 %indvars.iv57
  %14 = load ptr, ptr %13, align 8, !tbaa !31
  %15 = icmp eq ptr %14, null
  br i1 %15, label %.critedge2, label %.preheader

.preheader:                                       ; preds = %10
  %16 = getelementptr i8, ptr %14, i64 28
  %.val3446 = load i32, ptr %16, align 4, !tbaa !32
  %17 = icmp sgt i32 %.val3446, 0
  br i1 %17, label %.lr.ph, label %.critedge2

.lr.ph:                                           ; preds = %.preheader
  %18 = getelementptr i8, ptr %14, i64 32
  %19 = getelementptr i8, ptr %14, i64 20
  br label %20

20:                                               ; preds = %.lr.ph, %38
  %indvars.iv = phi i64 [ 0, %.lr.ph ], [ %indvars.iv.next, %38 ]
  %.148 = phi i32 [ %.051, %.lr.ph ], [ %.2, %38 ]
  %.val35 = load ptr, ptr %14, align 8, !tbaa !36
  %.val36 = load ptr, ptr %18, align 8, !tbaa !37
  %21 = getelementptr i8, ptr %.val35, i64 32
  %.val35.val = load ptr, ptr %21, align 8, !tbaa !9
  %22 = getelementptr i8, ptr %.val35.val, i64 8
  %.val35.val.val = load ptr, ptr %22, align 8, !tbaa !30
  %23 = getelementptr inbounds nuw i32, ptr %.val36, i64 %indvars.iv
  %24 = load i32, ptr %23, align 4, !tbaa !38
  %25 = sext i32 %24 to i64
  %26 = getelementptr inbounds ptr, ptr %.val35.val.val, i64 %25
  %27 = load ptr, ptr %26, align 8, !tbaa !31
  %.val37 = load i32, ptr %19, align 4
  %28 = and i32 %.val37, 15
  switch i32 %28, label %38 [
    i32 3, label %29
    i32 7, label %32
  ]

29:                                               ; preds = %20
  %.val41 = load ptr, ptr %9, align 8, !tbaa !35
  %30 = getelementptr i8, ptr %.val41, i64 4
  %.val41.val = load i32, ptr %30, align 4, !tbaa !28
  %31 = icmp eq i32 %.val41.val, 1
  br i1 %31, label %38, label %34

32:                                               ; preds = %20
  %33 = tail call i32 @Abc_NodeIsConst(ptr noundef %27) #11
  %.not32 = icmp eq i32 %33, 0
  br i1 %.not32, label %34, label %38

34:                                               ; preds = %29, %32
  %35 = add nsw i32 %.148, 1
  %36 = icmp eq i32 %.148, %1
  br i1 %36, label %37, label %38

37:                                               ; preds = %34
  store ptr %14, ptr %2, align 8, !tbaa !50
  store ptr %27, ptr %3, align 8, !tbaa !50
  br label %.critedge

38:                                               ; preds = %20, %34, %32, %29
  %.2 = phi i32 [ %.148, %29 ], [ %.148, %32 ], [ %35, %34 ], [ %.148, %20 ]
  %indvars.iv.next = add nuw nsw i64 %indvars.iv, 1
  %.val34 = load i32, ptr %16, align 4, !tbaa !32
  %39 = sext i32 %.val34 to i64
  %40 = icmp slt i64 %indvars.iv.next, %39
  br i1 %40, label %20, label %.critedge2.loopexit, !llvm.loop !42

.critedge2.loopexit:                              ; preds = %38
  %.pre = load ptr, ptr %5, align 8, !tbaa !9
  br label %.critedge2

.critedge2:                                       ; preds = %.critedge2.loopexit, %.preheader, %10
  %41 = phi ptr [ %11, %10 ], [ %11, %.preheader ], [ %.pre, %.critedge2.loopexit ]
  %.3 = phi i32 [ %.051, %10 ], [ %.051, %.preheader ], [ %.2, %.critedge2.loopexit ]
  %indvars.iv.next58 = add nuw nsw i64 %indvars.iv57, 1
  %42 = getelementptr i8, ptr %41, i64 4
  %.val = load i32, ptr %42, align 4, !tbaa !28
  %43 = sext i32 %.val to i64
  %44 = icmp slt i64 %indvars.iv.next58, %43
  br i1 %44, label %10, label %.critedge, !llvm.loop !43

.critedge:                                        ; preds = %.critedge2, %4, %37
  %.027 = phi i32 [ 1, %37 ], [ 0, %4 ], [ 0, %.critedge2 ]
  ret i32 %.027
}